target datalayout = "e-m:e-p270:32:32-p271:32:32-p272:64:64-i64:64-i128:128-f80:128-n8:16:32:64-S128"
target triple = "x86_64-pc-linux-gnu"

%struct._X11SDOps = type { %struct._SurfaceDataOps, ptr, ptr, i8, i8, ptr, i64, ptr, ptr, i32, i32, ptr, ptr, i64, i32, i8, i32, i32, i64, %struct.ShmPixmapData }
%struct._SurfaceDataOps = type { ptr, ptr, ptr, ptr, ptr, ptr, ptr }
%struct.ShmPixmapData = type { ptr, i32, i8, i64, i8, i64, i64, i32, i32, i32, i32 }
%struct._XImage = type { i32, i32, i32, i32, ptr, i32, i32, i32, i32, i32, i32, i32, i64, i64, i64, ptr, %struct.funcs }
%struct.funcs = type { ptr, ptr, ptr, ptr, ptr, ptr }

@cachedXImage = internal global ptr null, align 8
@awt_display = external global ptr, align 8

; Function Attrs: nounwind uwtable
define hidden zeroext i8 @X11SD_CachedXImageFits(i32 noundef %0, i32 noundef %1, i32 noundef %2, i32 noundef %3, i32 noundef %4, i8 noundef zeroext %5) #0 {
  %7 = alloca i8, align 1
  %8 = alloca i32, align 4
  %9 = alloca i32, align 4
  %10 = alloca i32, align 4
  %11 = alloca i32, align 4
  %12 = alloca i32, align 4
  %13 = alloca i8, align 1
  %14 = alloca i32, align 4
  %15 = alloca i32, align 4
  store i32 %0, ptr %8, align 4
  store i32 %1, ptr %9, align 4
  store i32 %2, ptr %10, align 4
  store i32 %3, ptr %11, align 4
  store i32 %4, ptr %12, align 4
  store i8 %5, ptr %13, align 1
  %16 = load ptr, ptr @cachedXImage, align 8
  %17 = getelementptr inbounds %struct._XImage, ptr %16, i32 0, i32 0
  %18 = load i32, ptr %17, align 8
  store i32 %18, ptr %14, align 4
  %19 = load ptr, ptr @cachedXImage, align 8
  %20 = getelementptr inbounds %struct._XImage, ptr %19, i32 0, i32 1
  %21 = load i32, ptr %20, align 4
  store i32 %21, ptr %15, align 4
  %22 = load i32, ptr %14, align 4
  %23 = load i32, ptr %8, align 4
  %24 = icmp slt i32 %22, %23
  br i1 %24, label %35, label %25

25:                                               ; preds = %6
  %26 = load i32, ptr %15, align 4
  %27 = load i32, ptr %9, align 4
  %28 = icmp slt i32 %26, %27
  br i1 %28, label %35, label %29

29:                                               ; preds = %25
  %30 = load i32, ptr %12, align 4
  %31 = load ptr, ptr @cachedXImage, align 8
  %32 = getelementptr inbounds %struct._XImage, ptr %31, i32 0, i32 9
  %33 = load i32, ptr %32, align 8
  %34 = icmp ne i32 %30, %33
  br i1 %34, label %35, label %36

35:                                               ; preds = %29, %25, %6
  store i8 0, ptr %7, align 1
  br label %60

36:                                               ; preds = %29
  %37 = load i8, ptr %13, align 1
  %38 = icmp ne i8 %37, 0
  br i1 %38, label %40, label %39

39:                                               ; preds = %36
  store i8 1, ptr %7, align 1
  br label %60

40:                                               ; preds = %36
  %41 = load i32, ptr %14, align 4
  %42 = load i32, ptr %8, align 4
  %43 = add nsw i32 %42, 64
  %44 = icmp slt i32 %41, %43
  br i1 %44, label %45, label %59

45:                                               ; preds = %40
  %46 = load i32, ptr %15, align 4
  %47 = load i32, ptr %9, align 4
  %48 = add nsw i32 %47, 64
  %49 = icmp slt i32 %46, %48
  br i1 %49, label %50, label %59

50:                                               ; preds = %45
  %51 = load i32, ptr %14, align 4
  %52 = load i32, ptr %10, align 4
  %53 = icmp sle i32 %51, %52
  br i1 %53, label %54, label %59

54:                                               ; preds = %50
  %55 = load i32, ptr %15, align 4
  %56 = load i32, ptr %11, align 4
  %57 = icmp sle i32 %55, %56
  br i1 %57, label %58, label %59

58:                                               ; preds = %54
  store i8 1, ptr %7, align 1
  br label %60

59:                                               ; preds = %54, %50, %45, %40
  store i8 0, ptr %7, align 1
  br label %60

60:                                               ; preds = %59, %58, %39, %35
  %61 = load i8, ptr %7, align 1
  ret i8 %61
}

; Function Attrs: nounwind uwtable
define hidden ptr @X11SD_GetSharedImage(ptr noundef %0, i32 noundef %1, i32 noundef %2, i32 noundef %3, i32 noundef %4, i8 noundef zeroext %5) #0 {
  %7 = alloca ptr, align 8
  %8 = alloca i32, align 4
  %9 = alloca i32, align 4
  %10 = alloca i32, align 4
  %11 = alloca i32, align 4
  %12 = alloca i8, align 1
  %13 = alloca ptr, align 8
  store ptr %0, ptr %7, align 8
  store i32 %1, ptr %8, align 4
  store i32 %2, ptr %9, align 4
  store i32 %3, ptr %10, align 4
  store i32 %4, ptr %11, align 4
  store i8 %5, ptr %12, align 1
  store ptr null, ptr %13, align 8
  %14 = load ptr, ptr @cachedXImage, align 8
  %15 = icmp ne ptr %14, null
  br i1 %15, label %16, label %32

16:                                               ; preds = %6
  %17 = load i32, ptr %8, align 4
  %18 = load i32, ptr %9, align 4
  %19 = load i32, ptr %10, align 4
  %20 = load i32, ptr %11, align 4
  %21 = load ptr, ptr %7, align 8
  %22 = getelementptr inbounds %struct._X11SDOps, ptr %21, i32 0, i32 9
  %23 = load i32, ptr %22, align 8
  %24 = load i8, ptr %12, align 1
  %25 = call zeroext i8 @X11SD_CachedXImageFits(i32 noundef %17, i32 noundef %18, i32 noundef %19, i32 noundef %20, i32 noundef %23, i8 noundef zeroext %24)
  %26 = zext i8 %25 to i32
  %27 = icmp ne i32 %26, 0
  br i1 %27, label %28, label %32

28:                                               ; preds = %16
  %29 = load ptr, ptr @awt_display, align 8
  %30 = call i32 @XSync(ptr noundef %29, i32 noundef 0)
  %31 = load ptr, ptr @cachedXImage, align 8
  store ptr %31, ptr %13, align 8
  store ptr null, ptr @cachedXImage, align 8
  br label %50

32:                                               ; preds = %16, %6
  %33 = load i32, ptr %8, align 4
  %34 = sext i32 %33 to i64
  %35 = load i32, ptr %9, align 4
  %36 = sext i32 %35 to i64
  %37 = mul nsw i64 %34, %36
  %38 = load ptr, ptr %7, align 8
  %39 = getelementptr inbounds %struct._X11SDOps, ptr %38, i32 0, i32 9
  %40 = load i32, ptr %39, align 8
  %41 = sext i32 %40 to i64
  %42 = mul nsw i64 %37, %41
  %43 = icmp sgt i64 %42, 65536
  br i1 %43, label %44, label %49

44:                                               ; preds = %32
  %45 = load ptr, ptr %7, align 8
  %46 = load i32, ptr %8, align 4
  %47 = load i32, ptr %9, align 4
  %48 = call ptr @X11SD_CreateSharedImage(ptr noundef %45, i32 noundef %46, i32 noundef %47)
  store ptr %48, ptr %13, align 8
  br label %49

49:                                               ; preds = %44, %32
  br label %50

50:                                               ; preds = %49, %28
  %51 = load ptr, ptr %13, align 8
  ret ptr %51
}