; Function Attrs: nounwind uwtable
define hidden ptr @X11SD_GetSharedImage(ptr nocapture noundef readonly %0, i32 noundef %1, i32 noundef %2, i32 noundef %3, i32 noundef %4, i8 noundef zeroext %5) local_unnamed_addr #0 {
  %7 = load ptr, ptr @cachedXImage, align 8
  %.not = icmp eq ptr %7, null
  br i1 %.not, label %X11SD_CachedXImageFits.exit.thread, label %8

8:                                                ; preds = %6
  %9 = load i32, ptr %7, align 8
  %10 = getelementptr inbounds i8, ptr %7, i64 4
  %11 = load i32, ptr %10, align 4
  %12 = icmp slt i32 %9, %1
  %13 = icmp slt i32 %11, %2
  %or.cond.i = select i1 %12, i1 true, i1 %13
  br i1 %or.cond.i, label %X11SD_CachedXImageFits.exit.thread, label %14

14:                                               ; preds = %8
  %15 = getelementptr inbounds i8, ptr %0, i64 112
  %16 = load i32, ptr %15, align 8
  %17 = getelementptr inbounds i8, ptr %7, i64 40
  %18 = load i32, ptr %17, align 8
  %.not.i = icmp eq i32 %18, %16
  br i1 %.not.i, label %19, label %X11SD_CachedXImageFits.exit.thread

19:                                               ; preds = %14
  %.not19.i = icmp eq i8 %5, 0
  br i1 %.not19.i, label %X11SD_CachedXImageFits.exit.thread15, label %X11SD_CachedXImageFits.exit

X11SD_CachedXImageFits.exit:                      ; preds = %19
  %20 = add nsw i32 %1, 64
  %21 = icmp sge i32 %9, %20
  %22 = add nsw i32 %2, 64
  %23 = icmp sge i32 %11, %22
  %or.cond23.not28.not32.i.not21 = select i1 %21, i1 true, i1 %23
  %.not20.i = icmp sgt i32 %9, %3
  %or.cond24.not29.i.not18 = or i1 %.not20.i, %or.cond23.not28.not32.i.not21
  %.not21.i = icmp sgt i32 %11, %4
  %or.cond25.not.i.not = select i1 %or.cond24.not29.i.not18, i1 true, i1 %.not21.i
  br i1 %or.cond25.not.i.not, label %X11SD_CachedXImageFits.exit.thread, label %X11SD_CachedXImageFits.exit.thread15

X11SD_CachedXImageFits.exit.thread15:             ; preds = %19, %X11SD_CachedXImageFits.exit
  %24 = load ptr, ptr @awt_display, align 8
  %25 = tail call i32 @XSync(ptr noundef %24, i32 noundef 0) #18
  %26 = load ptr, ptr @cachedXImage, align 8
  store ptr null, ptr @cachedXImage, align 8
  br label %37

X11SD_CachedXImageFits.exit.thread:               ; preds = %8, %14, %X11SD_CachedXImageFits.exit, %6
  %27 = sext i32 %1 to i64
  %28 = sext i32 %2 to i64
  %29 = mul nsw i64 %28, %27
  %30 = getelementptr inbounds i8, ptr %0, i64 112
  %31 = load i32, ptr %30, align 8
  %32 = sext i32 %31 to i64
  %33 = mul nsw i64 %29, %32
  %34 = icmp sgt i64 %33, 65536
  br i1 %34, label %35, label %37

35:                                               ; preds = %X11SD_CachedXImageFits.exit.thread
  %36 = tail call ptr @X11SD_CreateSharedImage(ptr noundef nonnull %0, i32 noundef %1, i32 noundef %2)
  br label %37

37:                                               ; preds = %X11SD_CachedXImageFits.exit.thread, %35, %X11SD_CachedXImageFits.exit.thread15
  %.0 = phi ptr [ %26, %X11SD_CachedXImageFits.exit.thread15 ], [ %36, %35 ], [ null, %X11SD_CachedXImageFits.exit.thread ]
  ret ptr %.0
}